; Function Attrs: mustprogress nofree norecurse nosync nounwind memory(read, argmem: readwrite, inaccessiblemem: none) uwtable
define internal void @_ZN2cv12cpu_baseline12_GLOBAL__N_113vlineSmooth5NIhNS_12_GLOBAL__N_113ufixedpoint16EEEvPKPKT0_S7_iPT_i(ptr noundef readonly captures(none) %0, ptr noundef readonly captures(none) %1, i32 %2, ptr noundef writeonly captures(none) %3, i32 noundef %4) #17 {
  %6 = icmp sgt i32 %4, 0
  br i1 %6, label %.lr.ph, label %._crit_edge

.lr.ph:                                           ; preds = %5
  %7 = getelementptr inbounds nuw i8, ptr %1, i64 2
  %8 = getelementptr inbounds nuw i8, ptr %0, i64 8
  %9 = getelementptr inbounds nuw i8, ptr %1, i64 4
  %10 = getelementptr inbounds nuw i8, ptr %0, i64 16
  %11 = getelementptr inbounds nuw i8, ptr %1, i64 6
  %12 = getelementptr inbounds nuw i8, ptr %0, i64 24
  %13 = getelementptr inbounds nuw i8, ptr %1, i64 8
  %14 = getelementptr inbounds nuw i8, ptr %0, i64 32
  %wide.trip.count = zext nneg i32 %4 to i64
  br label %15

15:                                               ; preds = %.lr.ph, %15
  %indvars.iv = phi i64 [ 0, %.lr.ph ], [ %indvars.iv.next, %15 ]
  %16 = load ptr, ptr %0, align 8, !tbaa !901
  %17 = getelementptr inbounds nuw %"class.cv::(anonymous namespace)::ufixedpoint16", ptr %16, i64 %indvars.iv
  %18 = load i16, ptr %1, align 2, !tbaa !41, !noalias !919
  %19 = zext i16 %18 to i32
  %20 = load i16, ptr %17, align 2, !tbaa !41, !noalias !919
  %21 = zext i16 %20 to i32
  %22 = mul nuw i32 %21, %19
  %23 = load ptr, ptr %8, align 8, !tbaa !901
  %24 = getelementptr inbounds nuw %"class.cv::(anonymous namespace)::ufixedpoint16", ptr %23, i64 %indvars.iv
  %25 = load i16, ptr %7, align 2, !tbaa !41, !noalias !922
  %26 = zext i16 %25 to i32
  %27 = load i16, ptr %24, align 2, !tbaa !41, !noalias !922
  %28 = zext i16 %27 to i32
  %29 = mul nuw i32 %28, %26
  %30 = tail call i32 @llvm.uadd.sat.i32(i32 %22, i32 %29)
  %31 = load ptr, ptr %10, align 8, !tbaa !901
  %32 = getelementptr inbounds nuw %"class.cv::(anonymous namespace)::ufixedpoint16", ptr %31, i64 %indvars.iv
  %33 = load i16, ptr %9, align 2, !tbaa !41, !noalias !925
  %34 = zext i16 %33 to i32
  %35 = load i16, ptr %32, align 2, !tbaa !41, !noalias !925
  %36 = zext i16 %35 to i32
  %37 = mul nuw i32 %36, %34
  %38 = tail call i32 @llvm.uadd.sat.i32(i32 %30, i32 %37)
  %39 = load ptr, ptr %12, align 8, !tbaa !901
  %40 = getelementptr inbounds nuw %"class.cv::(anonymous namespace)::ufixedpoint16", ptr %39, i64 %indvars.iv
  %41 = load i16, ptr %11, align 2, !tbaa !41, !noalias !928
  %42 = zext i16 %41 to i32
  %43 = load i16, ptr %40, align 2, !tbaa !41, !noalias !928
  %44 = zext i16 %43 to i32
  %45 = mul nuw i32 %44, %42
  %46 = tail call i32 @llvm.uadd.sat.i32(i32 %38, i32 %45)
  %47 = load ptr, ptr %14, align 8, !tbaa !901
  %48 = getelementptr inbounds nuw %"class.cv::(anonymous namespace)::ufixedpoint16", ptr %47, i64 %indvars.iv
  %49 = load i16, ptr %13, align 2, !tbaa !41, !noalias !931
  %50 = zext i16 %49 to i32
  %51 = load i16, ptr %48, align 2, !tbaa !41, !noalias !931
  %52 = zext i16 %51 to i32
  %53 = mul nuw i32 %52, %50
  %54 = tail call i32 @llvm.uadd.sat.i32(i32 %46, i32 %53)
  %55 = add i32 %54, 32768
  %56 = lshr i32 %55, 16
  %.sroa.speculated.i = tail call i32 @llvm.umin.i32(i32 range(i32 0, 65536) %56, i32 255)
  %57 = trunc nuw i32 %.sroa.speculated.i to i8
  %58 = getelementptr inbounds nuw i8, ptr %3, i64 %indvars.iv
  store i8 %57, ptr %58, align 1, !tbaa !282
  %indvars.iv.next = add nuw nsw i64 %indvars.iv, 1
  %exitcond.not = icmp eq i64 %indvars.iv.next, %wide.trip.count
  br i1 %exitcond.not, label %._crit_edge, label %15, !llvm.loop !934

._crit_edge:                                      ; preds = %15, %5
  ret void
}